target datalayout = "e-m:e-p270:32:32-p271:32:32-p272:64:64-i64:64-i128:128-f80:128-n8:16:32:64-S128"
target triple = "x86_64-pc-linux-gnu"

%struct._zend_executor_globals = type { %struct._zval_struct, %struct._zval_struct, [32 x ptr], ptr, ptr, %struct._zend_array, %struct._zend_array, ptr, i32, i8, %struct._zval_struct, i32, ptr, ptr, ptr, ptr, ptr, ptr, i64, ptr, ptr, i32, ptr, i32, i64, i32, i32, i32, i8, i8, %struct.zend_atomic_bool_s, %struct.zend_atomic_bool_s, ptr, i64, ptr, ptr, %struct._zend_array, %struct._zend_array, i32, i8, %struct._zval_struct, %struct._zval_struct, %struct._zend_stack, %struct._zend_stack, %struct._zend_stack, ptr, i32, i32, i64, ptr, ptr, ptr, %struct._zend_objects_store, %struct._zend_lazy_objects_store, ptr, ptr, ptr, [3 x %struct._zend_op], ptr, i8, i8, i64, i32, i32, ptr, [16 x %struct._HashTableIterator], ptr, %union._zend_function, %struct._zend_op, %struct._zend_array, i64, %struct.zend_get_gc_buffer, ptr, ptr, ptr, i64, i8, i32, ptr, ptr, i64, %struct._zend_call_stack, i64, i64, %struct._zend_strtod_state, [6 x ptr] }
%struct.zend_atomic_bool_s = type { i8 }
%struct._zval_struct = type { %union._zend_value, %union.anon, %union.anon.2 }
%union._zend_value = type { i64 }
%union.anon = type { i32 }
%union.anon.2 = type { i32 }
%struct._zend_stack = type { i32, i32, i32, ptr }
%struct._zend_objects_store = type { ptr, i32, i32, i32 }
%struct._zend_lazy_objects_store = type { %struct._zend_array }
%struct._HashTableIterator = type { ptr, i32, i32 }
%union._zend_function = type { %struct._zend_op_array }
%struct._zend_op_array = type { i8, [3 x i8], i32, ptr, ptr, ptr, i32, i32, ptr, ptr, ptr, ptr, i32, ptr, i32, i32, i32, ptr, ptr, ptr, ptr, ptr, i32, i32, ptr, ptr, ptr, i32, i32, i32, i32, ptr, ptr, [6 x ptr] }
%struct._zend_op = type { ptr, %union._znode_op, %union._znode_op, %union._znode_op, i32, i32, i8, i8, i8, i8 }
%union._znode_op = type { i32 }
%struct._zend_array = type { %struct._zend_refcounted_h, %union.anon.4, i32, %union.anon.6, i32, i32, i32, i32, i64, ptr }
%struct._zend_refcounted_h = type { i32, %union.anon.3 }
%union.anon.3 = type { i32 }
%union.anon.4 = type { i32 }
%union.anon.6 = type { ptr }
%struct.zend_get_gc_buffer = type { ptr, ptr, ptr }
%struct._zend_call_stack = type { ptr, i64 }
%struct._zend_strtod_state = type { [8 x ptr], ptr, ptr }
%struct._zend_execute_data = type { ptr, ptr, ptr, ptr, %struct._zval_struct, ptr, ptr, ptr, ptr }
%struct._spl_dllist_object = type { ptr, ptr, i32, i32, ptr, ptr, ptr, ptr, ptr, ptr, %struct._zend_object }
%struct._zend_object = type { %struct._zend_refcounted_h, i32, i32, ptr, ptr, ptr, [1 x %struct._zval_struct] }
%struct._spl_ptr_llist = type { ptr, ptr, i32 }
%struct._spl_ptr_llist_element = type { ptr, ptr, %struct._zval_struct }
%struct._zend_refcounted = type { %struct._zend_refcounted_h }

@.str = private unnamed_addr constant [2 x i8] c"z\00", align 1
@executor_globals = external global %struct._zend_executor_globals, align 8

; Function Attrs: alwaysinline nounwind uwtable
define internal i32 @zend_gc_addref(ptr noundef %0) #6 {
  %2 = alloca ptr, align 8
  store ptr %0, ptr %2, align 8, !tbaa !77
  br label %3

3:                                                ; preds = %1
  br label %4

4:                                                ; preds = %3
  %5 = load ptr, ptr %2, align 8, !tbaa !77
  %6 = getelementptr inbounds nuw %struct._zend_refcounted_h, ptr %5, i32 0, i32 0
  %7 = load i32, ptr %6, align 4, !tbaa !79
  %8 = add i32 %7, 1
  store i32 %8, ptr %6, align 4, !tbaa !79
  ret i32 %8
}

; Function Attrs: nounwind uwtable
define internal void @spl_ptr_llist_push(ptr noundef %0, ptr noundef %1) #0 {
  %3 = alloca ptr, align 8
  %4 = alloca ptr, align 8
  %5 = alloca ptr, align 8
  %6 = alloca ptr, align 8
  %7 = alloca ptr, align 8
  %8 = alloca ptr, align 8
  %9 = alloca i32, align 4
  store ptr %0, ptr %3, align 8, !tbaa !55
  store ptr %1, ptr %4, align 8, !tbaa !9
  call void @llvm.lifetime.start.p0(i64 8, ptr %5) #14
  %10 = call noalias ptr @_emalloc_32()
  store ptr %10, ptr %5, align 8, !tbaa !56
  %11 = load ptr, ptr %3, align 8, !tbaa !55
  %12 = getelementptr inbounds nuw %struct._spl_ptr_llist, ptr %11, i32 0, i32 1
  %13 = load ptr, ptr %12, align 8, !tbaa !57
  %14 = load ptr, ptr %5, align 8, !tbaa !56
  %15 = getelementptr inbounds nuw %struct._spl_ptr_llist_element, ptr %14, i32 0, i32 0
  store ptr %13, ptr %15, align 8, !tbaa !59
  %16 = load ptr, ptr %5, align 8, !tbaa !56
  %17 = getelementptr inbounds nuw %struct._spl_ptr_llist_element, ptr %16, i32 0, i32 1
  store ptr null, ptr %17, align 8, !tbaa !61
  br label %18

18:                                               ; preds = %2
  call void @llvm.lifetime.start.p0(i64 8, ptr %6) #14
  %19 = load ptr, ptr %5, align 8, !tbaa !56
  %20 = getelementptr inbounds nuw %struct._spl_ptr_llist_element, ptr %19, i32 0, i32 2
  store ptr %20, ptr %6, align 8, !tbaa !9
  call void @llvm.lifetime.start.p0(i64 8, ptr %7) #14
  %21 = load ptr, ptr %4, align 8, !tbaa !9
  store ptr %21, ptr %7, align 8, !tbaa !9
  call void @llvm.lifetime.start.p0(i64 8, ptr %8) #14
  %22 = load ptr, ptr %7, align 8, !tbaa !9
  %23 = getelementptr inbounds nuw %struct._zval_struct, ptr %22, i32 0, i32 0
  %24 = load ptr, ptr %23, align 8, !tbaa !11
  store ptr %24, ptr %8, align 8, !tbaa !62
  call void @llvm.lifetime.start.p0(i64 4, ptr %9) #14
  %25 = load ptr, ptr %7, align 8, !tbaa !9
  %26 = getelementptr inbounds nuw %struct._zval_struct, ptr %25, i32 0, i32 1
  %27 = load i32, ptr %26, align 8, !tbaa !11
  store i32 %27, ptr %9, align 4, !tbaa !64
  br label %28

28:                                               ; preds = %18
  %29 = load ptr, ptr %8, align 8, !tbaa !62
  %30 = load ptr, ptr %6, align 8, !tbaa !9
  %31 = getelementptr inbounds nuw %struct._zval_struct, ptr %30, i32 0, i32 0
  store ptr %29, ptr %31, align 8, !tbaa !11
  %32 = load i32, ptr %9, align 4, !tbaa !64
  %33 = load ptr, ptr %6, align 8, !tbaa !9
  %34 = getelementptr inbounds nuw %struct._zval_struct, ptr %33, i32 0, i32 1
  store i32 %32, ptr %34, align 8, !tbaa !11
  br label %35

35:                                               ; preds = %28
  br label %36

36:                                               ; preds = %35
  %37 = load i32, ptr %9, align 4, !tbaa !64
  %38 = and i32 %37, 65280
  %39 = icmp ne i32 %38, 0
  br i1 %39, label %40, label %44

40:                                               ; preds = %36
  %41 = load ptr, ptr %8, align 8, !tbaa !62
  %42 = getelementptr inbounds nuw %struct._zend_refcounted, ptr %41, i32 0, i32 0
  %43 = call i32 @zend_gc_addref(ptr noundef %42)
  br label %44

44:                                               ; preds = %40, %36
  call void @llvm.lifetime.end.p0(i64 4, ptr %9) #14
  call void @llvm.lifetime.end.p0(i64 8, ptr %8) #14
  call void @llvm.lifetime.end.p0(i64 8, ptr %7) #14
  call void @llvm.lifetime.end.p0(i64 8, ptr %6) #14
  br label %45

45:                                               ; preds = %44
  br label %46

46:                                               ; preds = %45
  %47 = load ptr, ptr %5, align 8, !tbaa !56
  %48 = getelementptr inbounds nuw %struct._spl_ptr_llist_element, ptr %47, i32 0, i32 2
  %49 = getelementptr inbounds nuw %struct._zval_struct, ptr %48, i32 0, i32 2
  store i32 1, ptr %49, align 4, !tbaa !11
  %50 = load ptr, ptr %3, align 8, !tbaa !55
  %51 = getelementptr inbounds nuw %struct._spl_ptr_llist, ptr %50, i32 0, i32 1
  %52 = load ptr, ptr %51, align 8, !tbaa !57
  %53 = icmp ne ptr %52, null
  br i1 %53, label %54, label %60

54:                                               ; preds = %46
  %55 = load ptr, ptr %5, align 8, !tbaa !56
  %56 = load ptr, ptr %3, align 8, !tbaa !55
  %57 = getelementptr inbounds nuw %struct._spl_ptr_llist, ptr %56, i32 0, i32 1
  %58 = load ptr, ptr %57, align 8, !tbaa !57
  %59 = getelementptr inbounds nuw %struct._spl_ptr_llist_element, ptr %58, i32 0, i32 1
  store ptr %55, ptr %59, align 8, !tbaa !61
  br label %64

60:                                               ; preds = %46
  %61 = load ptr, ptr %5, align 8, !tbaa !56
  %62 = load ptr, ptr %3, align 8, !tbaa !55
  %63 = getelementptr inbounds nuw %struct._spl_ptr_llist, ptr %62, i32 0, i32 0
  store ptr %61, ptr %63, align 8, !tbaa !65
  br label %64

64:                                               ; preds = %60, %54
  %65 = load ptr, ptr %5, align 8, !tbaa !56
  %66 = load ptr, ptr %3, align 8, !tbaa !55
  %67 = getelementptr inbounds nuw %struct._spl_ptr_llist, ptr %66, i32 0, i32 1
  store ptr %65, ptr %67, align 8, !tbaa !57
  %68 = load ptr, ptr %3, align 8, !tbaa !55
  %69 = getelementptr inbounds nuw %struct._spl_ptr_llist, ptr %68, i32 0, i32 2
  %70 = load i32, ptr %69, align 8, !tbaa !66
  %71 = add nsw i32 %70, 1
  store i32 %71, ptr %69, align 8, !tbaa !66
  call void @llvm.lifetime.end.p0(i64 8, ptr %5) #14
  ret void
}

; Function Attrs: inlinehint nounwind uwtable
define internal ptr @spl_dllist_from_obj(ptr noundef %0) #4 {
  %2 = alloca ptr, align 8
  store ptr %0, ptr %2, align 8, !tbaa !54
  %3 = load ptr, ptr %2, align 8, !tbaa !54
  %4 = getelementptr inbounds i8, ptr %3, i64 -72
  ret ptr %4
}

; Function Attrs: nounwind uwtable
define hidden void @zim_SplDoublyLinkedList_push(ptr noundef %0, ptr noundef %1) #0 {
  %3 = alloca ptr, align 8
  %4 = alloca ptr, align 8
  %5 = alloca ptr, align 8
  %6 = alloca ptr, align 8
  %7 = alloca i32, align 4
  store ptr %0, ptr %3, align 8, !tbaa !4
  store ptr %1, ptr %4, align 8, !tbaa !9
  call void @llvm.lifetime.start.p0(i64 8, ptr %5) #14
  call void @llvm.lifetime.start.p0(i64 8, ptr %6) #14
  %8 = load ptr, ptr %3, align 8, !tbaa !4
  %9 = getelementptr inbounds nuw %struct._zend_execute_data, ptr %8, i32 0, i32 4
  %10 = getelementptr inbounds nuw %struct._zval_struct, ptr %9, i32 0, i32 2
  %11 = load i32, ptr %10, align 4, !tbaa !11
  %12 = call i32 (i32, ptr, ...) @zend_parse_parameters(i32 noundef %11, ptr noundef @.str, ptr noundef %5)
  %13 = icmp eq i32 %12, -1
  br i1 %13, label %14, label %20

14:                                               ; preds = %2
  br label %15

15:                                               ; preds = %14
  %16 = load ptr, ptr getelementptr inbounds nuw (%struct._zend_executor_globals, ptr @executor_globals, i32 0, i32 54), align 8, !tbaa !12
  %17 = icmp ne ptr %16, null
  call void @llvm.assume(i1 %17)
  store i32 1, ptr %7, align 4
  br label %30

18:                                               ; No predecessors!
  br label %19

19:                                               ; preds = %18
  br label %20

20:                                               ; preds = %19, %2
  %21 = load ptr, ptr %3, align 8, !tbaa !4
  %22 = getelementptr inbounds nuw %struct._zend_execute_data, ptr %21, i32 0, i32 4
  %23 = getelementptr inbounds nuw %struct._zval_struct, ptr %22, i32 0, i32 0
  %24 = load ptr, ptr %23, align 8, !tbaa !11
  %25 = call ptr @spl_dllist_from_obj(ptr noundef %24)
  store ptr %25, ptr %6, align 8, !tbaa !45
  %26 = load ptr, ptr %6, align 8, !tbaa !45
  %27 = getelementptr inbounds nuw %struct._spl_dllist_object, ptr %26, i32 0, i32 0
  %28 = load ptr, ptr %27, align 8, !tbaa !47
  %29 = load ptr, ptr %5, align 8, !tbaa !9
  call void @spl_ptr_llist_push(ptr noundef %28, ptr noundef %29)
  store i32 0, ptr %7, align 4
  br label %30

30:                                               ; preds = %20, %15
  call void @llvm.lifetime.end.p0(i64 8, ptr %6) #14
  call void @llvm.lifetime.end.p0(i64 8, ptr %5) #14
  %31 = load i32, ptr %7, align 4
  switch i32 %31, label %33 [
    i32 0, label %32
    i32 1, label %32
  ]

32:                                               ; preds = %30, %30
  ret void

33:                                               ; preds = %30
  unreachable
}