; Function Attrs: nounwind uwtable
define hidden void @zim_SplDoublyLinkedList_push(ptr noundef readonly captures(none) %0, ptr readnone captures(none) %1) #0 {
  %3 = alloca ptr, align 8
  call void @llvm.lifetime.start.p0(i64 8, ptr nonnull %3) #13
  %4 = getelementptr inbounds nuw i8, ptr %0, i64 44
  %5 = load i32, ptr %4, align 4, !tbaa !4
  %6 = call i32 (i32, ptr, ...) @zend_parse_parameters(i32 noundef %5, ptr noundef nonnull @.str, ptr noundef nonnull %3) #13
  %7 = icmp eq i32 %6, -1
  br i1 %7, label %8, label %11

8:                                                ; preds = %2
  %9 = load ptr, ptr getelementptr inbounds nuw (i8, ptr @executor_globals, i64 960), align 8, !tbaa !7
  %10 = icmp ne ptr %9, null
  call void @llvm.assume(i1 %10)
  br label %38

11:                                               ; preds = %2
  %12 = getelementptr inbounds nuw i8, ptr %0, i64 32
  %13 = load ptr, ptr %12, align 8, !tbaa !4
  %14 = getelementptr inbounds i8, ptr %13, i64 -72
  %15 = load ptr, ptr %14, align 8, !tbaa !43
  %16 = load ptr, ptr %3, align 8, !tbaa !50
  %17 = call noalias ptr @_emalloc_32() #13
  %18 = getelementptr inbounds nuw i8, ptr %15, i64 8
  %19 = load ptr, ptr %18, align 8, !tbaa !51
  store ptr %19, ptr %17, align 8, !tbaa !53
  %20 = getelementptr inbounds nuw i8, ptr %17, i64 8
  store ptr null, ptr %20, align 8, !tbaa !55
  %21 = getelementptr inbounds nuw i8, ptr %17, i64 16
  %22 = load ptr, ptr %16, align 8, !tbaa !4
  %23 = getelementptr inbounds nuw i8, ptr %16, i64 8
  %24 = load i32, ptr %23, align 8, !tbaa !4
  store ptr %22, ptr %21, align 8, !tbaa !4
  %25 = getelementptr inbounds nuw i8, ptr %17, i64 24
  store i32 %24, ptr %25, align 8, !tbaa !4
  %26 = and i32 %24, 65280
  %.not.i = icmp eq i32 %26, 0
  br i1 %.not.i, label %30, label %27

27:                                               ; preds = %11
  %28 = load i32, ptr %22, align 4, !tbaa !56
  %29 = add i32 %28, 1
  store i32 %29, ptr %22, align 4, !tbaa !56
  br label %30

30:                                               ; preds = %27, %11
  %31 = getelementptr inbounds nuw i8, ptr %17, i64 28
  store i32 1, ptr %31, align 4, !tbaa !4
  %.not21.i = icmp eq ptr %19, null
  br i1 %.not21.i, label %34, label %32

32:                                               ; preds = %30
  %33 = getelementptr inbounds nuw i8, ptr %19, i64 8
  store ptr %17, ptr %33, align 8, !tbaa !55
  br label %spl_ptr_llist_push.exit

34:                                               ; preds = %30
  store ptr %17, ptr %15, align 8, !tbaa !57
  br label %spl_ptr_llist_push.exit

spl_ptr_llist_push.exit:                          ; preds = %32, %34
  store ptr %17, ptr %18, align 8, !tbaa !51
  %35 = getelementptr inbounds nuw i8, ptr %15, i64 16
  %36 = load i32, ptr %35, align 8, !tbaa !58
  %37 = add nsw i32 %36, 1
  store i32 %37, ptr %35, align 8, !tbaa !58
  br label %38

38:                                               ; preds = %spl_ptr_llist_push.exit, %8
  call void @llvm.lifetime.end.p0(i64 8, ptr nonnull %3) #13
  ret void
}